; Function Attrs: mustprogress uwtable
define hidden void @_ZN4lean13constant_infoC2ERKNS_11declarationE(ptr noundef nonnull align 8 dereferenceable(8) initializes((0, 8)) %0, ptr noundef nonnull readonly align 8 captures(none) dereferenceable(8) %1) unnamed_addr #0 align 2 personality ptr @__gxx_personality_v0 {
  %3 = load ptr, ptr %1, align 8, !tbaa !3
  store ptr %3, ptr %0, align 8, !tbaa !3
  %.val.i.i = load i32, ptr %3, align 4, !tbaa !8
  %4 = icmp sgt i32 %.val.i.i, 0
  br i1 %4, label %5, label %7, !prof !11

5:                                                ; preds = %2
  %6 = add nuw nsw i32 %.val.i.i, 1
  store i32 %6, ptr %3, align 4, !tbaa !8
  br label %_ZN4lean7inc_refEP11lean_object.exit

7:                                                ; preds = %2
  %.not.i.i = icmp eq i32 %.val.i.i, 0
  br i1 %.not.i.i, label %_ZN4lean7inc_refEP11lean_object.exit, label %8

8:                                                ; preds = %7
  invoke void @lean_inc_ref_cold(ptr noundef nonnull %3)
          to label %_ZN4lean7inc_refEP11lean_object.exit unwind label %9

_ZN4lean7inc_refEP11lean_object.exit:             ; preds = %7, %5, %8
  ret void

9:                                                ; preds = %8
  %10 = landingpad { ptr, i32 }
          cleanup
  tail call void @_ZN4lean10object_refD2Ev(ptr noundef nonnull align 8 dereferenceable(8) %0) #16
  resume { ptr, i32 } %10
}